; Function Attrs: mustprogress uwtable
define void @_ZN6google8protobuf24EnumValueDescriptorProto8CopyFromERKS1_(ptr noundef nonnull align 8 dereferenceable(48) %this, ptr noundef nonnull readonly align 8 dereferenceable(48) %from) local_unnamed_addr #3 align 2 {
entry:
  %cmp = icmp eq ptr %from, %this
  br i1 %cmp, label %return, label %if.end

if.end:                                           ; preds = %entry
  %0 = getelementptr inbounds i8, ptr %this, i64 16
  %1 = load i32, ptr %0, align 8
  %and.i = and i32 %1, 3
  %tobool.not.i = icmp eq i32 %and.i, 0
  br i1 %tobool.not.i, label %if.end9.i, label %if.then.i

if.then.i:                                        ; preds = %if.end
  %and2.i = and i32 %1, 1
  %tobool3.not.i = icmp eq i32 %and2.i, 0
  br i1 %tobool3.not.i, label %if.end.i, label %if.then4.i

if.then4.i:                                       ; preds = %if.then.i
  %name_.i = getelementptr inbounds i8, ptr %this, i64 24
  %2 = load ptr, ptr %name_.i, align 8
  %3 = ptrtoint ptr %2 to i64
  %and.i.i.i = and i64 %3, -4
  %4 = inttoptr i64 %and.i.i.i to ptr
  tail call void @_ZNSt7__cxx1112basic_stringIcSt11char_traitsIcESaIcEE5clearEv(ptr noundef nonnull align 8 dereferenceable(32) %4) #22
  br label %if.end.i

if.end.i:                                         ; preds = %if.then4.i, %if.then.i
  %and5.i = and i32 %1, 2
  %tobool6.not.i = icmp eq i32 %and5.i, 0
  br i1 %tobool6.not.i, label %if.end9.i, label %if.then7.i

if.then7.i:                                       ; preds = %if.end.i
  %options_.i = getelementptr inbounds i8, ptr %this, i64 32
  %5 = load ptr, ptr %options_.i, align 8
  tail call void @_ZN6google8protobuf16EnumValueOptions5ClearEv(ptr noundef nonnull align 8 dereferenceable(88) %5)
  br label %if.end9.i

if.end9.i:                                        ; preds = %if.then7.i, %if.end.i, %if.end
  %number_.i = getelementptr inbounds i8, ptr %this, i64 40
  store i32 0, ptr %number_.i, align 8
  store i32 0, ptr %0, align 8
  %_internal_metadata_.i = getelementptr inbounds i8, ptr %this, i64 8
  %6 = load i64, ptr %_internal_metadata_.i, align 8
  %and.i.i = and i64 %6, 1
  %tobool.i.not.i = icmp eq i64 %and.i.i, 0
  br i1 %tobool.i.not.i, label %_ZN6google8protobuf24EnumValueDescriptorProto5ClearEv.exit, label %if.then.i.i

if.then.i.i:                                      ; preds = %if.end9.i
  tail call void @_ZN6google8protobuf8internal16InternalMetadata7DoClearINS0_15UnknownFieldSetEEEvv(ptr noundef nonnull align 8 dereferenceable(8) %_internal_metadata_.i)
  br label %_ZN6google8protobuf24EnumValueDescriptorProto5ClearEv.exit

_ZN6google8protobuf24EnumValueDescriptorProto5ClearEv.exit: ; preds = %if.end9.i, %if.then.i.i
  tail call void @_ZN6google8protobuf24EnumValueDescriptorProto9MergeImplERNS0_11MessageLiteERKS2_(ptr noundef nonnull align 8 dereferenceable(16) %this, ptr noundef nonnull align 8 dereferenceable(16) %from)
  br label %return

return:                                           ; preds = %entry, %_ZN6google8protobuf24EnumValueDescriptorProto5ClearEv.exit
  ret void
}